target datalayout = "e-m:e-p270:32:32-p271:32:32-p272:64:64-i64:64-i128:128-f80:128-n8:16:32:64-S128"
target triple = "x86_64-pc-linux-gnu"

%struct.Expr = type { i32 }
%struct.ScalarArrayOpExpr = type { %struct.Expr, i32, i32, i32, i32, i8, i32, ptr, i32 }

; Function Attrs: nounwind uwtable
define dso_local void @set_sa_opfuncid(ptr noundef %0) #0 {
  %2 = alloca ptr, align 8
  store ptr %0, ptr %2, align 8
  %3 = load ptr, ptr %2, align 8
  %4 = getelementptr inbounds nuw %struct.ScalarArrayOpExpr, ptr %3, i32 0, i32 2
  %5 = load i32, ptr %4, align 8
  %6 = icmp eq i32 %5, 0
  br i1 %6, label %7, label %14

7:                                                ; preds = %1
  %8 = load ptr, ptr %2, align 8
  %9 = getelementptr inbounds nuw %struct.ScalarArrayOpExpr, ptr %8, i32 0, i32 1
  %10 = load i32, ptr %9, align 4
  %11 = call i32 @get_opcode(i32 noundef %10)
  %12 = load ptr, ptr %2, align 8
  %13 = getelementptr inbounds nuw %struct.ScalarArrayOpExpr, ptr %12, i32 0, i32 2
  store i32 %11, ptr %13, align 8
  br label %14

14:                                               ; preds = %7, %1
  ret void
}