; Function Attrs: nounwind uwtable
define dso_local void @set_sa_opfuncid(ptr noundef captures(none) %0) local_unnamed_addr #0 {
  %2 = getelementptr inbounds nuw i8, ptr %0, i64 8
  %3 = load i32, ptr %2, align 8
  %4 = icmp eq i32 %3, 0
  br i1 %4, label %5, label %9

5:                                                ; preds = %1
  %6 = getelementptr inbounds nuw i8, ptr %0, i64 4
  %7 = load i32, ptr %6, align 4
  %8 = tail call i32 @get_opcode(i32 noundef %7) #13
  store i32 %8, ptr %2, align 8
  br label %9

9:                                                ; preds = %5, %1
  ret void
}